target datalayout = "e-m:e-p270:32:32-p271:32:32-p272:64:64-i64:64-i128:128-f80:128-n8:16:32:64-S128"
target triple = "x86_64-pc-linux-gnu"

%struct.ARKodeMemRec = type { ptr, double, ptr, i32, i32, double, double, ptr, i32, double, ptr, i32, i32, ptr, ptr, i32, ptr, ptr, i32, ptr, ptr, ptr, ptr, ptr, ptr, ptr, ptr, ptr, ptr, ptr, ptr, ptr, ptr, ptr, i32, ptr, ptr, i32, ptr, i32, ptr, ptr, ptr, ptr, ptr, ptr, ptr, ptr, ptr, ptr, ptr, ptr, ptr, ptr, ptr, ptr, ptr, ptr, ptr, ptr, ptr, ptr, ptr, ptr, ptr, ptr, i32, ptr, ptr, ptr, ptr, ptr, ptr, ptr, i32, ptr, ptr, ptr, i32, ptr, ptr, ptr, ptr, ptr, ptr, ptr, i32, i32, i32, i32, double, double, double, double, double, double, double, double, double, double, i32, ptr, i64, i32, i32, i32, i32, i64, i64, i32, i64, i64, i64, i64, i64, i64, i64, double, double, double, double, double, i32, double, double, i32, i32, i32, i32, i32, i32, i32, i32, ptr, i32, ptr, ptr, ptr, ptr, i32, i32, i32 }

@.str = private unnamed_addr constant [118 x i8] c"generated/home/dtcxzyw/WorkSpace/Projects/compilers/llvm-opt-benchmark/bench/sundials/sundials/src/arkode/arkode_ls.c\00", align 1
@.str.63 = private unnamed_addr constant [27 x i8] c"Integrator memory is NULL.\00", align 1
@.str.65 = private unnamed_addr constant [35 x i8] c"Mass matrix solver memory is NULL.\00", align 1

; Function Attrs: nounwind uwtable
define i32 @arkLs_AccessARKODEMassMem(ptr noundef %0, ptr noundef %1, ptr noundef %2, ptr noundef %3) #0 {
  %5 = alloca i32, align 4
  %6 = alloca ptr, align 8
  %7 = alloca ptr, align 8
  %8 = alloca ptr, align 8
  %9 = alloca ptr, align 8
  %10 = alloca ptr, align 8
  %11 = alloca i32, align 4
  store ptr %0, ptr %6, align 8, !tbaa !3
  store ptr %1, ptr %7, align 8, !tbaa !155
  store ptr %2, ptr %8, align 8, !tbaa !170
  store ptr %3, ptr %9, align 8, !tbaa !159
  call void @llvm.lifetime.start.p0(i64 8, ptr %10) #7
  %12 = load ptr, ptr %6, align 8, !tbaa !3
  %13 = icmp eq ptr %12, null
  br i1 %13, label %14, label %16

14:                                               ; preds = %4
  %15 = load ptr, ptr %7, align 8, !tbaa !155
  call void (ptr, i32, i32, ptr, ptr, ptr, ...) @arkProcessError(ptr noundef null, i32 noundef -1, i32 noundef 4086, ptr noundef %15, ptr noundef @.str, ptr noundef @.str.63)
  store i32 -1, ptr %5, align 4
  store i32 1, ptr %11, align 4
  br label %35

16:                                               ; preds = %4
  %17 = load ptr, ptr %6, align 8, !tbaa !3
  %18 = load ptr, ptr %8, align 8, !tbaa !170
  store ptr %17, ptr %18, align 8, !tbaa !11
  %19 = load ptr, ptr %8, align 8, !tbaa !170
  %20 = load ptr, ptr %19, align 8, !tbaa !11
  %21 = getelementptr inbounds nuw %struct.ARKodeMemRec, ptr %20, i32 0, i32 69
  %22 = load ptr, ptr %21, align 8, !tbaa !97
  %23 = load ptr, ptr %8, align 8, !tbaa !170
  %24 = load ptr, ptr %23, align 8, !tbaa !11
  %25 = call ptr %22(ptr noundef %24)
  store ptr %25, ptr %10, align 8, !tbaa !3
  %26 = load ptr, ptr %10, align 8, !tbaa !3
  %27 = icmp eq ptr %26, null
  br i1 %27, label %28, label %32

28:                                               ; preds = %16
  %29 = load ptr, ptr %8, align 8, !tbaa !170
  %30 = load ptr, ptr %29, align 8, !tbaa !11
  %31 = load ptr, ptr %7, align 8, !tbaa !155
  call void (ptr, i32, i32, ptr, ptr, ptr, ...) @arkProcessError(ptr noundef %30, i32 noundef -6, i32 noundef 4094, ptr noundef %31, ptr noundef @.str, ptr noundef @.str.65)
  store i32 -6, ptr %5, align 4
  store i32 1, ptr %11, align 4
  br label %35

32:                                               ; preds = %16
  %33 = load ptr, ptr %10, align 8, !tbaa !3
  %34 = load ptr, ptr %9, align 8, !tbaa !159
  store ptr %33, ptr %34, align 8, !tbaa !101
  store i32 0, ptr %5, align 4
  store i32 1, ptr %11, align 4
  br label %35

35:                                               ; preds = %32, %28, %14
  call void @llvm.lifetime.end.p0(i64 8, ptr %10) #7
  %36 = load i32, ptr %5, align 4
  ret i32 %36
}