; Function Attrs: nounwind uwtable
define range(i32 -6, 1) i32 @arkLs_AccessARKODEMassMem(ptr noundef %0, ptr noundef %1, ptr noundef captures(none) %2, ptr noundef writeonly captures(none) %3) local_unnamed_addr #0 {
  %5 = icmp eq ptr %0, null
  br i1 %5, label %6, label %7

6:                                                ; preds = %4
  tail call void (ptr, i32, i32, ptr, ptr, ptr, ...) @arkProcessError(ptr noundef null, i32 noundef -1, i32 noundef 4086, ptr noundef %1, ptr noundef nonnull @.str, ptr noundef nonnull @.str.63) #13
  br label %15

7:                                                ; preds = %4
  store ptr %0, ptr %2, align 8, !tbaa !153
  %8 = getelementptr inbounds nuw i8, ptr %0, i64 536
  %9 = load ptr, ptr %8, align 8, !tbaa !75
  %10 = tail call ptr %9(ptr noundef nonnull %0) #13
  %11 = icmp eq ptr %10, null
  br i1 %11, label %12, label %14

12:                                               ; preds = %7
  %13 = load ptr, ptr %2, align 8, !tbaa !153
  tail call void (ptr, i32, i32, ptr, ptr, ptr, ...) @arkProcessError(ptr noundef %13, i32 noundef -6, i32 noundef 4094, ptr noundef %1, ptr noundef nonnull @.str, ptr noundef nonnull @.str.65) #13
  br label %15

14:                                               ; preds = %7
  store ptr %10, ptr %3, align 8, !tbaa !139
  br label %15

15:                                               ; preds = %14, %12, %6
  %.0 = phi i32 [ -1, %6 ], [ -6, %12 ], [ 0, %14 ]
  ret i32 %.0
}